target datalayout = "e-m:e-p270:32:32-p271:32:32-p272:64:64-i64:64-i128:128-f80:128-n8:16:32:64-S128"
target triple = "x86_64-pc-linux-gnu"

%struct.archive_write = type { %struct.archive, i32, i64, i64, ptr, i64, ptr, ptr, ptr, ptr, ptr, i32, i32, ptr, ptr, ptr, ptr, ptr, ptr, ptr, ptr, ptr, ptr, ptr, ptr, ptr, ptr }
%struct.archive = type { i32, i32, ptr, i32, ptr, i32, i32, ptr, %struct.archive_string, ptr, i32, i32, ptr, ptr, i64, i64, i64, i8, i64 }
%struct.archive_string = type { ptr, i64, i64 }
%struct.archive_write_filter = type { i64, ptr, ptr, ptr, ptr, ptr, ptr, ptr, ptr, ptr, ptr, i32, i32, i32, i32 }
%struct.private_b64encode = type { i32, %struct.archive_string, %struct.archive_string, i64, i64, [57 x i8] }

@.str = private unnamed_addr constant [35 x i8] c"archive_write_add_filter_b64encode\00", align 1
@.str.1 = private unnamed_addr constant [41 x i8] c"Can't allocate data for b64encode filter\00", align 1
@.str.2 = private unnamed_addr constant [2 x i8] c"-\00", align 1
@.str.3 = private unnamed_addr constant [10 x i8] c"b64encode\00", align 1

; Function Attrs: nounwind uwtable
define dso_local i32 @archive_write_add_filter_b64encode(ptr noundef %0) #0 {
  %2 = alloca i32, align 4
  %3 = alloca ptr, align 8
  %4 = alloca ptr, align 8
  %5 = alloca ptr, align 8
  %6 = alloca ptr, align 8
  %7 = alloca i32, align 4
  %8 = alloca i32, align 4
  store ptr %0, ptr %3, align 8, !tbaa !4
  call void @llvm.lifetime.start.p0(i64 8, ptr %4) #7
  %9 = load ptr, ptr %3, align 8, !tbaa !4
  store ptr %9, ptr %4, align 8, !tbaa !9
  call void @llvm.lifetime.start.p0(i64 8, ptr %5) #7
  %10 = load ptr, ptr %3, align 8, !tbaa !4
  %11 = call ptr @__archive_write_allocate_filter(ptr noundef %10)
  store ptr %11, ptr %5, align 8, !tbaa !11
  call void @llvm.lifetime.start.p0(i64 8, ptr %6) #7
  br label %12

12:                                               ; preds = %1
  call void @llvm.lifetime.start.p0(i64 4, ptr %7) #7
  %13 = load ptr, ptr %4, align 8, !tbaa !9
  %14 = getelementptr inbounds nuw %struct.archive_write, ptr %13, i32 0, i32 0
  %15 = call i32 @__archive_check_magic(ptr noundef %14, i32 noundef -1329217314, i32 noundef 1, ptr noundef @.str)
  store i32 %15, ptr %7, align 4, !tbaa !13
  %16 = load i32, ptr %7, align 4, !tbaa !13
  %17 = icmp eq i32 %16, -30
  br i1 %17, label %18, label %19

18:                                               ; preds = %12
  store i32 -30, ptr %2, align 4
  store i32 1, ptr %8, align 4
  br label %20

19:                                               ; preds = %12
  store i32 0, ptr %8, align 4
  br label %20

20:                                               ; preds = %19, %18
  call void @llvm.lifetime.end.p0(i64 4, ptr %7) #7
  %21 = load i32, ptr %8, align 4
  switch i32 %21, label %58 [
    i32 0, label %22
  ]

22:                                               ; preds = %20
  br label %23

23:                                               ; preds = %22
  br label %24

24:                                               ; preds = %23
  %25 = call noalias ptr @calloc(i64 noundef 1, i64 noundef 136) #8
  store ptr %25, ptr %6, align 8, !tbaa !15
  %26 = load ptr, ptr %6, align 8, !tbaa !15
  %27 = icmp eq ptr %26, null
  br i1 %27, label %28, label %32

28:                                               ; preds = %24
  %29 = load ptr, ptr %5, align 8, !tbaa !11
  %30 = getelementptr inbounds nuw %struct.archive_write_filter, ptr %29, i32 0, i32 1
  %31 = load ptr, ptr %30, align 8, !tbaa !17
  call void (ptr, i32, ptr, ...) @archive_set_error(ptr noundef %31, i32 noundef 12, ptr noundef @.str.1)
  store i32 -30, ptr %2, align 4
  store i32 1, ptr %8, align 4
  br label %58

32:                                               ; preds = %24
  %33 = load ptr, ptr %6, align 8, !tbaa !15
  %34 = getelementptr inbounds nuw %struct.private_b64encode, ptr %33, i32 0, i32 1
  %35 = getelementptr inbounds nuw %struct.archive_string, ptr %34, i32 0, i32 1
  store i64 0, ptr %35, align 8, !tbaa !21
  %36 = load ptr, ptr %6, align 8, !tbaa !15
  %37 = getelementptr inbounds nuw %struct.private_b64encode, ptr %36, i32 0, i32 1
  %38 = call ptr @archive_strncat(ptr noundef %37, ptr noundef @.str.2, i64 noundef 1)
  %39 = load ptr, ptr %6, align 8, !tbaa !15
  %40 = getelementptr inbounds nuw %struct.private_b64encode, ptr %39, i32 0, i32 0
  store i32 420, ptr %40, align 8, !tbaa !24
  %41 = load ptr, ptr %6, align 8, !tbaa !15
  %42 = load ptr, ptr %5, align 8, !tbaa !11
  %43 = getelementptr inbounds nuw %struct.archive_write_filter, ptr %42, i32 0, i32 9
  store ptr %41, ptr %43, align 8, !tbaa !25
  %44 = load ptr, ptr %5, align 8, !tbaa !11
  %45 = getelementptr inbounds nuw %struct.archive_write_filter, ptr %44, i32 0, i32 10
  store ptr @.str.3, ptr %45, align 8, !tbaa !26
  %46 = load ptr, ptr %5, align 8, !tbaa !11
  %47 = getelementptr inbounds nuw %struct.archive_write_filter, ptr %46, i32 0, i32 11
  store i32 7, ptr %47, align 8, !tbaa !27
  %48 = load ptr, ptr %5, align 8, !tbaa !11
  %49 = getelementptr inbounds nuw %struct.archive_write_filter, ptr %48, i32 0, i32 4
  store ptr @archive_filter_b64encode_open, ptr %49, align 8, !tbaa !28
  %50 = load ptr, ptr %5, align 8, !tbaa !11
  %51 = getelementptr inbounds nuw %struct.archive_write_filter, ptr %50, i32 0, i32 3
  store ptr @archive_filter_b64encode_options, ptr %51, align 8, !tbaa !29
  %52 = load ptr, ptr %5, align 8, !tbaa !11
  %53 = getelementptr inbounds nuw %struct.archive_write_filter, ptr %52, i32 0, i32 5
  store ptr @archive_filter_b64encode_write, ptr %53, align 8, !tbaa !30
  %54 = load ptr, ptr %5, align 8, !tbaa !11
  %55 = getelementptr inbounds nuw %struct.archive_write_filter, ptr %54, i32 0, i32 7
  store ptr @archive_filter_b64encode_close, ptr %55, align 8, !tbaa !31
  %56 = load ptr, ptr %5, align 8, !tbaa !11
  %57 = getelementptr inbounds nuw %struct.archive_write_filter, ptr %56, i32 0, i32 8
  store ptr @archive_filter_b64encode_free, ptr %57, align 8, !tbaa !32
  store i32 0, ptr %2, align 4
  store i32 1, ptr %8, align 4
  br label %58

58:                                               ; preds = %32, %28, %20
  call void @llvm.lifetime.end.p0(i64 8, ptr %6) #7
  call void @llvm.lifetime.end.p0(i64 8, ptr %5) #7
  call void @llvm.lifetime.end.p0(i64 8, ptr %4) #7
  %59 = load i32, ptr %2, align 4
  ret i32 %59
}